; Function Attrs: mustprogress nofree norecurse nosync nounwind willreturn memory(argmem: write) uwtable
define void @stbte_set_property(ptr noundef writeonly captures(none) %0, i32 noundef %1, i32 noundef %2, i32 noundef %3, float noundef %4) local_unnamed_addr #5 {
  %6 = getelementptr inbounds nuw i8, ptr %0, i64 640000
  %7 = sext i32 %2 to i64
  %8 = sext i32 %1 to i64
  %9 = sext i32 %3 to i64
  %10 = getelementptr inbounds [200 x [200 x [1 x float]]], ptr %6, i64 0, i64 %7, i64 %8, i64 %9
  store float %4, ptr %10, align 4, !tbaa !48
  ret void
}